target datalayout = "e-m:e-p270:32:32-p271:32:32-p272:64:64-i64:64-i128:128-f80:128-n8:16:32:64-S128"
target triple = "x86_64-pc-linux-gnu"

%struct.curltime = type { i64, i32 }
%struct.Curl_tree = type { ptr, ptr, ptr, ptr, %struct.curltime, ptr }

@Curl_splayinsert.KEY_NOTUSED = internal constant { i64, i32, [4 x i8] } { i64 -1, i32 -1, [4 x i8] zeroinitializer }, align 8

; Function Attrs: nounwind uwtable
define hidden ptr @Curl_splayinsert(i64 %0, i32 %1, ptr noundef %2, ptr noundef %3) #0 {
  %5 = alloca ptr, align 8
  %6 = alloca %struct.curltime, align 8
  %7 = alloca ptr, align 8
  %8 = alloca ptr, align 8
  %9 = getelementptr inbounds nuw { i64, i32 }, ptr %6, i32 0, i32 0
  store i64 %0, ptr %9, align 8
  %10 = getelementptr inbounds nuw { i64, i32 }, ptr %6, i32 0, i32 1
  store i32 %1, ptr %10, align 8
  store ptr %2, ptr %7, align 8, !tbaa !3
  store ptr %3, ptr %8, align 8, !tbaa !3
  br label %11

11:                                               ; preds = %4
  br label %12

12:                                               ; preds = %11
  %13 = load ptr, ptr %7, align 8, !tbaa !3
  %14 = icmp ne ptr %13, null
  br i1 %14, label %15, label %57

15:                                               ; preds = %12
  %16 = load ptr, ptr %7, align 8, !tbaa !3
  %17 = getelementptr inbounds nuw { i64, i32 }, ptr %6, i32 0, i32 0
  %18 = load i64, ptr %17, align 8
  %19 = getelementptr inbounds nuw { i64, i32 }, ptr %6, i32 0, i32 1
  %20 = load i32, ptr %19, align 8
  %21 = call ptr @Curl_splay(i64 %18, i32 %20, ptr noundef %16)
  store ptr %21, ptr %7, align 8, !tbaa !3
  br label %22

22:                                               ; preds = %15
  br label %23

23:                                               ; preds = %22
  %24 = load ptr, ptr %7, align 8, !tbaa !3
  %25 = getelementptr inbounds nuw %struct.Curl_tree, ptr %24, i32 0, i32 4
  %26 = getelementptr inbounds nuw { i64, i32 }, ptr %6, i32 0, i32 0
  %27 = load i64, ptr %26, align 8
  %28 = getelementptr inbounds nuw { i64, i32 }, ptr %6, i32 0, i32 1
  %29 = load i32, ptr %28, align 8
  %30 = getelementptr inbounds nuw { i64, i32 }, ptr %25, i32 0, i32 0
  %31 = load i64, ptr %30, align 8
  %32 = getelementptr inbounds nuw { i64, i32 }, ptr %25, i32 0, i32 1
  %33 = load i32, ptr %32, align 8
  %34 = call i64 @Curl_timediff_us(i64 %27, i32 %29, i64 %31, i32 %33)
  %35 = icmp eq i64 %34, 0
  br i1 %35, label %36, label %56

36:                                               ; preds = %23
  %37 = load ptr, ptr %8, align 8, !tbaa !3
  %38 = getelementptr inbounds nuw %struct.Curl_tree, ptr %37, i32 0, i32 4
  call void @llvm.memcpy.p0.p0.i64(ptr align 8 %38, ptr align 8 @Curl_splayinsert.KEY_NOTUSED, i64 16, i1 false), !tbaa.struct !15
  %39 = load ptr, ptr %7, align 8, !tbaa !3
  %40 = load ptr, ptr %8, align 8, !tbaa !3
  %41 = getelementptr inbounds nuw %struct.Curl_tree, ptr %40, i32 0, i32 2
  store ptr %39, ptr %41, align 8, !tbaa !17
  %42 = load ptr, ptr %7, align 8, !tbaa !3
  %43 = getelementptr inbounds nuw %struct.Curl_tree, ptr %42, i32 0, i32 3
  %44 = load ptr, ptr %43, align 8, !tbaa !18
  %45 = load ptr, ptr %8, align 8, !tbaa !3
  %46 = getelementptr inbounds nuw %struct.Curl_tree, ptr %45, i32 0, i32 3
  store ptr %44, ptr %46, align 8, !tbaa !18
  %47 = load ptr, ptr %8, align 8, !tbaa !3
  %48 = load ptr, ptr %7, align 8, !tbaa !3
  %49 = getelementptr inbounds nuw %struct.Curl_tree, ptr %48, i32 0, i32 3
  %50 = load ptr, ptr %49, align 8, !tbaa !18
  %51 = getelementptr inbounds nuw %struct.Curl_tree, ptr %50, i32 0, i32 2
  store ptr %47, ptr %51, align 8, !tbaa !17
  %52 = load ptr, ptr %8, align 8, !tbaa !3
  %53 = load ptr, ptr %7, align 8, !tbaa !3
  %54 = getelementptr inbounds nuw %struct.Curl_tree, ptr %53, i32 0, i32 3
  store ptr %52, ptr %54, align 8, !tbaa !18
  %55 = load ptr, ptr %7, align 8, !tbaa !3
  store ptr %55, ptr %5, align 8
  br label %111

56:                                               ; preds = %23
  br label %57

57:                                               ; preds = %56, %12
  %58 = load ptr, ptr %7, align 8, !tbaa !3
  %59 = icmp ne ptr %58, null
  br i1 %59, label %65, label %60

60:                                               ; preds = %57
  %61 = load ptr, ptr %8, align 8, !tbaa !3
  %62 = getelementptr inbounds nuw %struct.Curl_tree, ptr %61, i32 0, i32 1
  store ptr null, ptr %62, align 8, !tbaa !8
  %63 = load ptr, ptr %8, align 8, !tbaa !3
  %64 = getelementptr inbounds nuw %struct.Curl_tree, ptr %63, i32 0, i32 0
  store ptr null, ptr %64, align 8, !tbaa !13
  br label %101

65:                                               ; preds = %57
  %66 = load ptr, ptr %7, align 8, !tbaa !3
  %67 = getelementptr inbounds nuw %struct.Curl_tree, ptr %66, i32 0, i32 4
  %68 = getelementptr inbounds nuw { i64, i32 }, ptr %6, i32 0, i32 0
  %69 = load i64, ptr %68, align 8
  %70 = getelementptr inbounds nuw { i64, i32 }, ptr %6, i32 0, i32 1
  %71 = load i32, ptr %70, align 8
  %72 = getelementptr inbounds nuw { i64, i32 }, ptr %67, i32 0, i32 0
  %73 = load i64, ptr %72, align 8
  %74 = getelementptr inbounds nuw { i64, i32 }, ptr %67, i32 0, i32 1
  %75 = load i32, ptr %74, align 8
  %76 = call i64 @Curl_timediff_us(i64 %69, i32 %71, i64 %73, i32 %75)
  %77 = icmp slt i64 %76, 0
  br i1 %77, label %78, label %89

78:                                               ; preds = %65
  %79 = load ptr, ptr %7, align 8, !tbaa !3
  %80 = getelementptr inbounds nuw %struct.Curl_tree, ptr %79, i32 0, i32 0
  %81 = load ptr, ptr %80, align 8, !tbaa !13
  %82 = load ptr, ptr %8, align 8, !tbaa !3
  %83 = getelementptr inbounds nuw %struct.Curl_tree, ptr %82, i32 0, i32 0
  store ptr %81, ptr %83, align 8, !tbaa !13
  %84 = load ptr, ptr %7, align 8, !tbaa !3
  %85 = load ptr, ptr %8, align 8, !tbaa !3
  %86 = getelementptr inbounds nuw %struct.Curl_tree, ptr %85, i32 0, i32 1
  store ptr %84, ptr %86, align 8, !tbaa !8
  %87 = load ptr, ptr %7, align 8, !tbaa !3
  %88 = getelementptr inbounds nuw %struct.Curl_tree, ptr %87, i32 0, i32 0
  store ptr null, ptr %88, align 8, !tbaa !13
  br label %100

89:                                               ; preds = %65
  %90 = load ptr, ptr %7, align 8, !tbaa !3
  %91 = getelementptr inbounds nuw %struct.Curl_tree, ptr %90, i32 0, i32 1
  %92 = load ptr, ptr %91, align 8, !tbaa !8
  %93 = load ptr, ptr %8, align 8, !tbaa !3
  %94 = getelementptr inbounds nuw %struct.Curl_tree, ptr %93, i32 0, i32 1
  store ptr %92, ptr %94, align 8, !tbaa !8
  %95 = load ptr, ptr %7, align 8, !tbaa !3
  %96 = load ptr, ptr %8, align 8, !tbaa !3
  %97 = getelementptr inbounds nuw %struct.Curl_tree, ptr %96, i32 0, i32 0
  store ptr %95, ptr %97, align 8, !tbaa !13
  %98 = load ptr, ptr %7, align 8, !tbaa !3
  %99 = getelementptr inbounds nuw %struct.Curl_tree, ptr %98, i32 0, i32 1
  store ptr null, ptr %99, align 8, !tbaa !8
  br label %100

100:                                              ; preds = %89, %78
  br label %101

101:                                              ; preds = %100, %60
  %102 = load ptr, ptr %8, align 8, !tbaa !3
  %103 = getelementptr inbounds nuw %struct.Curl_tree, ptr %102, i32 0, i32 4
  call void @llvm.memcpy.p0.p0.i64(ptr align 8 %103, ptr align 8 %6, i64 16, i1 false), !tbaa.struct !15
  %104 = load ptr, ptr %8, align 8, !tbaa !3
  %105 = load ptr, ptr %8, align 8, !tbaa !3
  %106 = getelementptr inbounds nuw %struct.Curl_tree, ptr %105, i32 0, i32 2
  store ptr %104, ptr %106, align 8, !tbaa !17
  %107 = load ptr, ptr %8, align 8, !tbaa !3
  %108 = load ptr, ptr %8, align 8, !tbaa !3
  %109 = getelementptr inbounds nuw %struct.Curl_tree, ptr %108, i32 0, i32 3
  store ptr %107, ptr %109, align 8, !tbaa !18
  %110 = load ptr, ptr %8, align 8, !tbaa !3
  store ptr %110, ptr %5, align 8
  br label %111

111:                                              ; preds = %101, %36
  %112 = load ptr, ptr %5, align 8
  ret ptr %112
}