; Function Attrs: nounwind uwtable
define hidden noundef ptr @Curl_splayinsert(i64 %0, i32 %1, ptr noundef %2, ptr noundef initializes((32, 44)) %3) local_unnamed_addr #0 {
  %.not = icmp eq ptr %2, null
  br i1 %.not, label %20, label %5

5:                                                ; preds = %4
  %6 = tail call ptr @Curl_splay(i64 %0, i32 %1, ptr noundef nonnull %2)
  %7 = getelementptr inbounds nuw i8, ptr %6, i64 32
  %8 = load i64, ptr %7, align 8
  %9 = getelementptr inbounds nuw i8, ptr %6, i64 40
  %10 = load i32, ptr %9, align 8
  %11 = tail call i64 @Curl_timediff_us(i64 %0, i32 %1, i64 %8, i32 %10) #7
  %12 = icmp eq i64 %11, 0
  br i1 %12, label %13, label %21

13:                                               ; preds = %5
  %14 = getelementptr inbounds nuw i8, ptr %3, i64 32
  tail call void @llvm.memcpy.p0.p0.i64(ptr noundef nonnull align 8 dereferenceable(16) %14, ptr noundef nonnull align 8 dereferenceable(16) @Curl_splayinsert.KEY_NOTUSED, i64 16, i1 false), !tbaa.struct !14
  %15 = getelementptr inbounds nuw i8, ptr %3, i64 16
  store ptr %6, ptr %15, align 8, !tbaa !17
  %16 = getelementptr inbounds nuw i8, ptr %6, i64 24
  %17 = load ptr, ptr %16, align 8, !tbaa !18
  %18 = getelementptr inbounds nuw i8, ptr %3, i64 24
  store ptr %17, ptr %18, align 8, !tbaa !18
  %19 = getelementptr inbounds nuw i8, ptr %17, i64 16
  store ptr %3, ptr %19, align 8, !tbaa !17
  store ptr %3, ptr %16, align 8, !tbaa !18
  br label %36

20:                                               ; preds = %4
  tail call void @llvm.memset.p0.i64(ptr noundef nonnull align 8 dereferenceable(16) %3, i8 0, i64 16, i1 false)
  br label %32

21:                                               ; preds = %5
  %22 = load i64, ptr %7, align 8
  %23 = load i32, ptr %9, align 8
  %24 = tail call i64 @Curl_timediff_us(i64 %0, i32 %1, i64 %22, i32 %23) #7
  %25 = icmp slt i64 %24, 0
  %26 = getelementptr inbounds nuw i8, ptr %3, i64 8
  br i1 %25, label %27, label %29

27:                                               ; preds = %21
  %28 = load ptr, ptr %6, align 8, !tbaa !3
  store ptr %28, ptr %3, align 8, !tbaa !3
  store ptr %6, ptr %26, align 8, !tbaa !12
  store ptr null, ptr %6, align 8, !tbaa !3
  br label %32

29:                                               ; preds = %21
  %30 = getelementptr inbounds nuw i8, ptr %6, i64 8
  %31 = load ptr, ptr %30, align 8, !tbaa !12
  store ptr %31, ptr %26, align 8, !tbaa !12
  store ptr %6, ptr %3, align 8, !tbaa !3
  store ptr null, ptr %30, align 8, !tbaa !12
  br label %32

32:                                               ; preds = %27, %29, %20
  %33 = getelementptr inbounds nuw i8, ptr %3, i64 32
  store i64 %0, ptr %33, align 8, !tbaa !15
  %.sroa.5.0..sroa_idx = getelementptr inbounds nuw i8, ptr %3, i64 40
  store i32 %1, ptr %.sroa.5.0..sroa_idx, align 8, !tbaa !16
  %34 = getelementptr inbounds nuw i8, ptr %3, i64 16
  store ptr %3, ptr %34, align 8, !tbaa !17
  %35 = getelementptr inbounds nuw i8, ptr %3, i64 24
  store ptr %3, ptr %35, align 8, !tbaa !18
  br label %36

36:                                               ; preds = %32, %13
  %.0 = phi ptr [ %6, %13 ], [ %3, %32 ]
  ret ptr %.0
}